target datalayout = "e-m:e-p270:32:32-p271:32:32-p272:64:64-i64:64-i128:128-f80:128-n8:16:32:64-S128"
target triple = "x86_64-pc-linux-gnu"

%struct.AEAD_SSL3_CTX = type { %struct.evp_cipher_ctx_st, %struct.env_md_ctx_st }
%struct.evp_cipher_ctx_st = type { ptr, ptr, ptr, i32, i32, i32, [16 x i8], [16 x i8], [32 x i8], i32, i32, i32, i32, [32 x i8] }
%struct.env_md_ctx_st = type { ptr, ptr, ptr, ptr }

; Function Attrs: nounwind uwtable
define internal i32 @ssl3_mac(ptr noundef %0, ptr noundef %1, ptr noundef %2, ptr noundef %3, i64 noundef %4, ptr noundef %5, i64 noundef %6) #0 {
  %8 = alloca i32, align 4
  %9 = alloca ptr, align 8
  %10 = alloca ptr, align 8
  %11 = alloca ptr, align 8
  %12 = alloca ptr, align 8
  %13 = alloca i64, align 8
  %14 = alloca ptr, align 8
  %15 = alloca i64, align 8
  %16 = alloca i64, align 8
  %17 = alloca i64, align 8
  %18 = alloca [2 x i8], align 1
  %19 = alloca %struct.env_md_ctx_st, align 8
  %20 = alloca [48 x i8], align 16
  %21 = alloca [64 x i8], align 16
  %22 = alloca i32, align 4
  store ptr %0, ptr %9, align 8, !tbaa !20
  store ptr %1, ptr %10, align 8, !tbaa !11
  store ptr %2, ptr %11, align 8, !tbaa !40
  store ptr %3, ptr %12, align 8, !tbaa !11
  store i64 %4, ptr %13, align 8, !tbaa !13
  store ptr %5, ptr %14, align 8, !tbaa !11
  store i64 %6, ptr %15, align 8, !tbaa !13
  call void @llvm.lifetime.start.p0(i64 8, ptr %16) #6
  %23 = load ptr, ptr %9, align 8, !tbaa !20
  %24 = getelementptr inbounds nuw %struct.AEAD_SSL3_CTX, ptr %23, i32 0, i32 1
  %25 = call i64 @EVP_MD_CTX_size(ptr noundef %24)
  store i64 %25, ptr %16, align 8, !tbaa !13
  call void @llvm.lifetime.start.p0(i64 8, ptr %17) #6
  %26 = load i64, ptr %16, align 8, !tbaa !13
  %27 = icmp eq i64 %26, 20
  %28 = select i1 %27, i32 40, i32 48
  %29 = sext i32 %28 to i64
  store i64 %29, ptr %17, align 8, !tbaa !13
  call void @llvm.lifetime.start.p0(i64 2, ptr %18) #6
  %30 = load i64, ptr %15, align 8, !tbaa !13
  %31 = lshr i64 %30, 8
  %32 = trunc i64 %31 to i8
  %33 = getelementptr inbounds [2 x i8], ptr %18, i64 0, i64 0
  store i8 %32, ptr %33, align 1, !tbaa !32
  %34 = load i64, ptr %15, align 8, !tbaa !13
  %35 = and i64 %34, 255
  %36 = trunc i64 %35 to i8
  %37 = getelementptr inbounds [2 x i8], ptr %18, i64 0, i64 1
  store i8 %36, ptr %37, align 1, !tbaa !32
  call void @llvm.lifetime.start.p0(i64 32, ptr %19) #6
  call void @EVP_MD_CTX_init(ptr noundef %19)
  call void @llvm.lifetime.start.p0(i64 48, ptr %20) #6
  call void @llvm.lifetime.start.p0(i64 64, ptr %21) #6
  %38 = getelementptr inbounds [48 x i8], ptr %20, i64 0, i64 0
  %39 = load i64, ptr %17, align 8, !tbaa !13
  call void @llvm.memset.p0.i64(ptr align 16 %38, i8 54, i64 %39, i1 false)
  %40 = load ptr, ptr %9, align 8, !tbaa !20
  %41 = getelementptr inbounds nuw %struct.AEAD_SSL3_CTX, ptr %40, i32 0, i32 1
  %42 = call i32 @EVP_MD_CTX_copy_ex(ptr noundef %19, ptr noundef %41)
  %43 = icmp ne i32 %42, 0
  br i1 %43, label %44, label %67

44:                                               ; preds = %7
  %45 = getelementptr inbounds [48 x i8], ptr %20, i64 0, i64 0
  %46 = load i64, ptr %17, align 8, !tbaa !13
  %47 = call i32 @EVP_DigestUpdate(ptr noundef %19, ptr noundef %45, i64 noundef %46)
  %48 = icmp ne i32 %47, 0
  br i1 %48, label %49, label %67

49:                                               ; preds = %44
  %50 = load ptr, ptr %12, align 8, !tbaa !11
  %51 = load i64, ptr %13, align 8, !tbaa !13
  %52 = call i32 @EVP_DigestUpdate(ptr noundef %19, ptr noundef %50, i64 noundef %51)
  %53 = icmp ne i32 %52, 0
  br i1 %53, label %54, label %67

54:                                               ; preds = %49
  %55 = getelementptr inbounds [2 x i8], ptr %18, i64 0, i64 0
  %56 = call i32 @EVP_DigestUpdate(ptr noundef %19, ptr noundef %55, i64 noundef 2)
  %57 = icmp ne i32 %56, 0
  br i1 %57, label %58, label %67

58:                                               ; preds = %54
  %59 = load ptr, ptr %14, align 8, !tbaa !11
  %60 = load i64, ptr %15, align 8, !tbaa !13
  %61 = call i32 @EVP_DigestUpdate(ptr noundef %19, ptr noundef %59, i64 noundef %60)
  %62 = icmp ne i32 %61, 0
  br i1 %62, label %63, label %67

63:                                               ; preds = %58
  %64 = getelementptr inbounds [64 x i8], ptr %21, i64 0, i64 0
  %65 = call i32 @EVP_DigestFinal_ex(ptr noundef %19, ptr noundef %64, ptr noundef null)
  %66 = icmp ne i32 %65, 0
  br i1 %66, label %69, label %67

67:                                               ; preds = %63, %58, %54, %49, %44, %7
  %68 = call i32 @EVP_MD_CTX_cleanup(ptr noundef %19)
  store i32 0, ptr %8, align 4
  store i32 1, ptr %22, align 4
  br label %95

69:                                               ; preds = %63
  %70 = getelementptr inbounds [48 x i8], ptr %20, i64 0, i64 0
  %71 = load i64, ptr %17, align 8, !tbaa !13
  call void @llvm.memset.p0.i64(ptr align 16 %70, i8 92, i64 %71, i1 false)
  %72 = load ptr, ptr %9, align 8, !tbaa !20
  %73 = getelementptr inbounds nuw %struct.AEAD_SSL3_CTX, ptr %72, i32 0, i32 1
  %74 = call i32 @EVP_MD_CTX_copy_ex(ptr noundef %19, ptr noundef %73)
  %75 = icmp ne i32 %74, 0
  br i1 %75, label %76, label %91

76:                                               ; preds = %69
  %77 = getelementptr inbounds [48 x i8], ptr %20, i64 0, i64 0
  %78 = load i64, ptr %17, align 8, !tbaa !13
  %79 = call i32 @EVP_DigestUpdate(ptr noundef %19, ptr noundef %77, i64 noundef %78)
  %80 = icmp ne i32 %79, 0
  br i1 %80, label %81, label %91

81:                                               ; preds = %76
  %82 = getelementptr inbounds [64 x i8], ptr %21, i64 0, i64 0
  %83 = load i64, ptr %16, align 8, !tbaa !13
  %84 = call i32 @EVP_DigestUpdate(ptr noundef %19, ptr noundef %82, i64 noundef %83)
  %85 = icmp ne i32 %84, 0
  br i1 %85, label %86, label %91

86:                                               ; preds = %81
  %87 = load ptr, ptr %10, align 8, !tbaa !11
  %88 = load ptr, ptr %11, align 8, !tbaa !40
  %89 = call i32 @EVP_DigestFinal_ex(ptr noundef %19, ptr noundef %87, ptr noundef %88)
  %90 = icmp ne i32 %89, 0
  br i1 %90, label %93, label %91

91:                                               ; preds = %86, %81, %76, %69
  %92 = call i32 @EVP_MD_CTX_cleanup(ptr noundef %19)
  store i32 0, ptr %8, align 4
  store i32 1, ptr %22, align 4
  br label %95

93:                                               ; preds = %86
  %94 = call i32 @EVP_MD_CTX_cleanup(ptr noundef %19)
  store i32 1, ptr %8, align 4
  store i32 1, ptr %22, align 4
  br label %95

95:                                               ; preds = %93, %91, %67
  call void @llvm.lifetime.end.p0(i64 64, ptr %21) #6
  call void @llvm.lifetime.end.p0(i64 48, ptr %20) #6
  call void @llvm.lifetime.end.p0(i64 32, ptr %19) #6
  call void @llvm.lifetime.end.p0(i64 2, ptr %18) #6
  call void @llvm.lifetime.end.p0(i64 8, ptr %17) #6
  call void @llvm.lifetime.end.p0(i64 8, ptr %16) #6
  %96 = load i32, ptr %8, align 4
  ret i32 %96
}