; Function Attrs: nounwind uwtable
define internal fastcc range(i32 0, 2) i32 @ssl3_mac(ptr noundef %0, ptr noundef nonnull %1, ptr noundef %2, ptr noundef %3, ptr noundef %4, i64 noundef range(i64 0, 4294967296) %5) unnamed_addr #1 {
  %7 = alloca [2 x i8], align 1
  %8 = alloca %struct.env_md_ctx_st, align 8
  %9 = alloca [48 x i8], align 16
  %10 = alloca [64 x i8], align 16
  %11 = getelementptr inbounds nuw i8, ptr %0, i64 152
  %12 = tail call i64 @EVP_MD_CTX_size(ptr noundef nonnull %11) #7
  %13 = icmp eq i64 %12, 20
  %14 = select i1 %13, i64 40, i64 48
  call void @llvm.lifetime.start.p0(i64 2, ptr nonnull %7) #7
  %15 = lshr i64 %5, 8
  %16 = trunc i64 %15 to i8
  store i8 %16, ptr %7, align 1, !tbaa !23
  %17 = trunc i64 %5 to i8
  %18 = getelementptr inbounds nuw i8, ptr %7, i64 1
  store i8 %17, ptr %18, align 1, !tbaa !23
  call void @llvm.lifetime.start.p0(i64 32, ptr nonnull %8) #7
  call void @EVP_MD_CTX_init(ptr noundef nonnull %8) #7
  call void @llvm.lifetime.start.p0(i64 48, ptr nonnull %9) #7
  call void @llvm.lifetime.start.p0(i64 64, ptr nonnull %10) #7
  call void @llvm.memset.p0.i64(ptr noundef nonnull align 16 dereferenceable(40) %9, i8 54, i64 %14, i1 false)
  %19 = call i32 @EVP_MD_CTX_copy_ex(ptr noundef nonnull %8, ptr noundef nonnull %11) #7
  %.not = icmp eq i32 %19, 0
  br i1 %.not, label %38, label %20

20:                                               ; preds = %6
  %21 = call i32 @EVP_DigestUpdate(ptr noundef nonnull %8, ptr noundef nonnull %9, i64 noundef %14) #7
  %.not17 = icmp eq i32 %21, 0
  br i1 %.not17, label %38, label %22

22:                                               ; preds = %20
  %23 = call i32 @EVP_DigestUpdate(ptr noundef nonnull %8, ptr noundef %3, i64 noundef 9) #7
  %.not18 = icmp eq i32 %23, 0
  br i1 %.not18, label %38, label %24

24:                                               ; preds = %22
  %25 = call i32 @EVP_DigestUpdate(ptr noundef nonnull %8, ptr noundef nonnull %7, i64 noundef 2) #7
  %.not19 = icmp eq i32 %25, 0
  br i1 %.not19, label %38, label %26

26:                                               ; preds = %24
  %27 = call i32 @EVP_DigestUpdate(ptr noundef nonnull %8, ptr noundef %4, i64 noundef %5) #7
  %.not20 = icmp eq i32 %27, 0
  br i1 %.not20, label %38, label %28

28:                                               ; preds = %26
  %29 = call i32 @EVP_DigestFinal_ex(ptr noundef nonnull %8, ptr noundef nonnull %10, ptr noundef null) #7
  %.not21 = icmp eq i32 %29, 0
  br i1 %.not21, label %38, label %30

30:                                               ; preds = %28
  call void @llvm.memset.p0.i64(ptr noundef nonnull align 16 dereferenceable(40) %9, i8 92, i64 %14, i1 false)
  %31 = call i32 @EVP_MD_CTX_copy_ex(ptr noundef nonnull %8, ptr noundef nonnull %11) #7
  %.not22 = icmp eq i32 %31, 0
  br i1 %.not22, label %38, label %32

32:                                               ; preds = %30
  %33 = call i32 @EVP_DigestUpdate(ptr noundef nonnull %8, ptr noundef nonnull %9, i64 noundef %14) #7
  %.not23 = icmp eq i32 %33, 0
  br i1 %.not23, label %38, label %34

34:                                               ; preds = %32
  %35 = call i32 @EVP_DigestUpdate(ptr noundef nonnull %8, ptr noundef nonnull %10, i64 noundef %12) #7
  %.not24 = icmp eq i32 %35, 0
  br i1 %.not24, label %38, label %36

36:                                               ; preds = %34
  %37 = call i32 @EVP_DigestFinal_ex(ptr noundef nonnull %8, ptr noundef nonnull %1, ptr noundef %2) #7
  %.not25 = icmp ne i32 %37, 0
  %spec.select = zext i1 %.not25 to i32
  br label %38

38:                                               ; preds = %36, %30, %32, %34, %6, %20, %22, %24, %26, %28
  %.0 = phi i32 [ 0, %28 ], [ 0, %26 ], [ 0, %24 ], [ 0, %22 ], [ 0, %20 ], [ 0, %6 ], [ 0, %34 ], [ 0, %32 ], [ 0, %30 ], [ %spec.select, %36 ]
  %39 = call i32 @EVP_MD_CTX_cleanup(ptr noundef nonnull %8) #7
  call void @llvm.lifetime.end.p0(i64 64, ptr nonnull %10) #7
  call void @llvm.lifetime.end.p0(i64 48, ptr nonnull %9) #7
  call void @llvm.lifetime.end.p0(i64 32, ptr nonnull %8) #7
  call void @llvm.lifetime.end.p0(i64 2, ptr nonnull %7) #7
  ret i32 %.0
}